target datalayout = "e-m:e-p270:32:32-p271:32:32-p272:64:64-i64:64-i128:128-f80:128-n8:16:32:64-S128"
target triple = "x86_64-pc-linux-gnu"

%struct.JsonLexContext = type { ptr, i64, i32, ptr, ptr, ptr, i8, i32, i32, i32, i32, ptr, ptr, ptr, i8, ptr, ptr }

@failed_oom = internal global %struct.JsonLexContext zeroinitializer, align 8

; Function Attrs: nounwind uwtable
define internal i32 @report_parse_error(i32 noundef %0, ptr noundef %1) #1 {
  %3 = alloca i32, align 4
  %4 = alloca i32, align 4
  %5 = alloca ptr, align 8
  store i32 %0, ptr %4, align 4
  store ptr %1, ptr %5, align 8
  %6 = load ptr, ptr %5, align 8
  %7 = getelementptr inbounds nuw %struct.JsonLexContext, ptr %6, i32 0, i32 3
  %8 = load ptr, ptr %7, align 8
  %9 = icmp eq ptr %8, null
  br i1 %9, label %15, label %10

10:                                               ; preds = %2
  %11 = load ptr, ptr %5, align 8
  %12 = getelementptr inbounds nuw %struct.JsonLexContext, ptr %11, i32 0, i32 7
  %13 = load i32, ptr %12, align 4
  %14 = icmp eq i32 %13, 12
  br i1 %14, label %15, label %16

15:                                               ; preds = %10, %2
  store i32 11, ptr %3, align 4
  br label %28

16:                                               ; preds = %10
  %17 = load i32, ptr %4, align 4
  switch i32 %17, label %27 [
    i32 8, label %18
    i32 0, label %19
    i32 1, label %20
    i32 2, label %21
    i32 3, label %22
    i32 4, label %23
    i32 5, label %24
    i32 6, label %25
    i32 7, label %26
  ]

18:                                               ; preds = %16
  store i32 9, ptr %3, align 4
  br label %28

19:                                               ; preds = %16
  store i32 10, ptr %3, align 4
  br label %28

20:                                               ; preds = %16
  store i32 14, ptr %3, align 4
  br label %28

21:                                               ; preds = %16
  store i32 6, ptr %3, align 4
  br label %28

22:                                               ; preds = %16
  store i32 7, ptr %3, align 4
  br label %28

23:                                               ; preds = %16
  store i32 12, ptr %3, align 4
  br label %28

24:                                               ; preds = %16
  store i32 8, ptr %3, align 4
  br label %28

25:                                               ; preds = %16
  store i32 13, ptr %3, align 4
  br label %28

26:                                               ; preds = %16
  store i32 14, ptr %3, align 4
  br label %28

27:                                               ; preds = %16
  store i32 0, ptr %3, align 4
  br label %28

28:                                               ; preds = %27, %26, %25, %24, %23, %22, %21, %20, %19, %18, %15
  %29 = load i32, ptr %3, align 4
  ret i32 %29
}

; Function Attrs: inlinehint nounwind uwtable
define internal i32 @lex_expect(i32 noundef %0, ptr noundef %1, i32 noundef %2) #0 {
  %4 = alloca i32, align 4
  %5 = alloca i32, align 4
  %6 = alloca ptr, align 8
  %7 = alloca i32, align 4
  store i32 %0, ptr %5, align 4
  store ptr %1, ptr %6, align 8
  store i32 %2, ptr %7, align 4
  %8 = load ptr, ptr %6, align 8
  %9 = call i32 @lex_peek(ptr noundef %8)
  %10 = load i32, ptr %7, align 4
  %11 = icmp eq i32 %9, %10
  br i1 %11, label %12, label %15

12:                                               ; preds = %3
  %13 = load ptr, ptr %6, align 8
  %14 = call i32 @json_lex(ptr noundef %13)
  store i32 %14, ptr %4, align 4
  br label %19

15:                                               ; preds = %3
  %16 = load i32, ptr %5, align 4
  %17 = load ptr, ptr %6, align 8
  %18 = call i32 @report_parse_error(i32 noundef %16, ptr noundef %17)
  store i32 %18, ptr %4, align 4
  br label %19

19:                                               ; preds = %15, %12
  %20 = load i32, ptr %4, align 4
  ret i32 %20
}

; Function Attrs: inlinehint nounwind uwtable
define internal i32 @lex_peek(ptr noundef %0) #0 {
  %2 = alloca ptr, align 8
  store ptr %0, ptr %2, align 8
  %3 = load ptr, ptr %2, align 8
  %4 = getelementptr inbounds nuw %struct.JsonLexContext, ptr %3, i32 0, i32 7
  %5 = load i32, ptr %4, align 4
  ret i32 %5
}

; Function Attrs: nounwind uwtable
define i32 @pg_parse_json(ptr noundef %0, ptr noundef %1) #1 {
  %3 = alloca i32, align 4
  %4 = alloca ptr, align 8
  %5 = alloca ptr, align 8
  %6 = alloca i32, align 4
  %7 = alloca i32, align 4
  %8 = alloca i32, align 4
  store ptr %0, ptr %4, align 8
  store ptr %1, ptr %5, align 8
  call void @llvm.lifetime.start.p0(i64 4, ptr %6) #15
  call void @llvm.lifetime.start.p0(i64 4, ptr %7) #15
  %9 = load ptr, ptr %4, align 8
  %10 = icmp eq ptr %9, @failed_oom
  br i1 %10, label %11, label %12

11:                                               ; preds = %2
  store i32 16, ptr %3, align 4
  store i32 1, ptr %8, align 4
  br label %49

12:                                               ; preds = %2
  %13 = load ptr, ptr %4, align 8
  %14 = getelementptr inbounds nuw %struct.JsonLexContext, ptr %13, i32 0, i32 6
  %15 = load i8, ptr %14, align 8, !range !3, !noundef !4
  %16 = trunc i8 %15 to i1
  br i1 %16, label %17, label %18

17:                                               ; preds = %12
  store i32 2, ptr %3, align 4
  store i32 1, ptr %8, align 4
  br label %49

18:                                               ; preds = %12
  %19 = load ptr, ptr %4, align 8
  %20 = call i32 @json_lex(ptr noundef %19)
  store i32 %20, ptr %7, align 4
  %21 = load i32, ptr %7, align 4
  %22 = icmp ne i32 %21, 0
  br i1 %22, label %23, label %25

23:                                               ; preds = %18
  %24 = load i32, ptr %7, align 4
  store i32 %24, ptr %3, align 4
  store i32 1, ptr %8, align 4
  br label %49

25:                                               ; preds = %18
  %26 = load ptr, ptr %4, align 8
  %27 = call i32 @lex_peek(ptr noundef %26)
  store i32 %27, ptr %6, align 4
  %28 = load i32, ptr %6, align 4
  switch i32 %28, label %37 [
    i32 3, label %29
    i32 5, label %33
  ]

29:                                               ; preds = %25
  %30 = load ptr, ptr %4, align 8
  %31 = load ptr, ptr %5, align 8
  %32 = call i32 @parse_object(ptr noundef %30, ptr noundef %31)
  store i32 %32, ptr %7, align 4
  br label %41

33:                                               ; preds = %25
  %34 = load ptr, ptr %4, align 8
  %35 = load ptr, ptr %5, align 8
  %36 = call i32 @parse_array(ptr noundef %34, ptr noundef %35)
  store i32 %36, ptr %7, align 4
  br label %41

37:                                               ; preds = %25
  %38 = load ptr, ptr %4, align 8
  %39 = load ptr, ptr %5, align 8
  %40 = call i32 @parse_scalar(ptr noundef %38, ptr noundef %39)
  store i32 %40, ptr %7, align 4
  br label %41

41:                                               ; preds = %37, %33, %29
  %42 = load i32, ptr %7, align 4
  %43 = icmp eq i32 %42, 0
  br i1 %43, label %44, label %47

44:                                               ; preds = %41
  %45 = load ptr, ptr %4, align 8
  %46 = call i32 @lex_expect(i32 noundef 8, ptr noundef %45, i32 noundef 12)
  store i32 %46, ptr %7, align 4
  br label %47

47:                                               ; preds = %44, %41
  %48 = load i32, ptr %7, align 4
  store i32 %48, ptr %3, align 4
  store i32 1, ptr %8, align 4
  br label %49

49:                                               ; preds = %47, %23, %17, %11
  call void @llvm.lifetime.end.p0(i64 4, ptr %7) #15
  call void @llvm.lifetime.end.p0(i64 4, ptr %6) #15
  %50 = load i32, ptr %3, align 4
  ret i32 %50
}