; Function Attrs: nounwind uwtable
define i32 @pg_parse_json(ptr noundef captures(address) %0, ptr noundef readonly captures(none) %1) local_unnamed_addr #1 {
  %3 = icmp eq ptr %0, @failed_oom
  br i1 %3, label %lex_expect.exit, label %4

4:                                                ; preds = %2
  %5 = getelementptr inbounds nuw i8, ptr %0, i64 48
  %6 = load i8, ptr %5, align 8, !range !3, !noundef !4
  %7 = trunc nuw i8 %6 to i1
  br i1 %7, label %lex_expect.exit, label %8

8:                                                ; preds = %4
  %9 = tail call i32 @json_lex(ptr noundef %0)
  %.not = icmp eq i32 %9, 0
  br i1 %.not, label %10, label %lex_expect.exit

10:                                               ; preds = %8
  %11 = getelementptr i8, ptr %0, i64 52
  %.val = load i32, ptr %11, align 4
  switch i32 %.val, label %16 [
    i32 3, label %12
    i32 5, label %14
  ]

12:                                               ; preds = %10
  %13 = tail call fastcc i32 @parse_object(ptr noundef %0, ptr noundef %1)
  br label %18

14:                                               ; preds = %10
  %15 = tail call fastcc i32 @parse_array(ptr noundef %0, ptr noundef %1)
  br label %18

16:                                               ; preds = %10
  %17 = tail call fastcc i32 @parse_scalar(ptr noundef %0, ptr noundef %1)
  br label %18

18:                                               ; preds = %16, %14, %12
  %.0 = phi i32 [ %17, %16 ], [ %15, %14 ], [ %13, %12 ]
  %19 = icmp eq i32 %.0, 0
  br i1 %19, label %20, label %lex_expect.exit

20:                                               ; preds = %18
  %.val.i = load i32, ptr %11, align 4
  %21 = icmp eq i32 %.val.i, 12
  br i1 %21, label %22, label %24

22:                                               ; preds = %20
  %23 = tail call i32 @json_lex(ptr noundef nonnull %0)
  br label %lex_expect.exit

24:                                               ; preds = %20
  %25 = getelementptr inbounds nuw i8, ptr %0, i64 24
  %26 = load ptr, ptr %25, align 8
  %27 = icmp eq ptr %26, null
  %spec.select = select i1 %27, i32 11, i32 9
  br label %lex_expect.exit

lex_expect.exit:                                  ; preds = %24, %22, %18, %8, %4, %2
  %.016 = phi i32 [ 16, %2 ], [ 2, %4 ], [ %9, %8 ], [ %.0, %18 ], [ %23, %22 ], [ %spec.select, %24 ]
  ret i32 %.016
}